Certificate:
    Data:
        Version: 3 (0x2)
        Serial Number:
            0f:50:b8:32:a3:1c:80:8b:4d:7f:32:f7:84:7c:f0:6c
    Signature Algorithm: sha256WithRSAEncryption
        Issuer: C=US, O=Surescripts LLC., OU=Surescripts Certification Authorities, CN=Surescripts Root Certification Authority
        Validity
            Not Before: May  3 17:55:22 2013 GMT
            Not After : May  3 18:05:17 2033 GMT
        Subject: C=US, O=Surescripts LLC., OU=Surescripts Certification Authorities, CN=Surescripts Root Certification Authority
        Subject Public Key Info:
            Public Key Algorithm: rsaEncryption
                Public-Key: (2048 bit)
                Modulus:
                    00:c1:f4:3d:97:80:e8:75:50:71:ed:74:0c:6b:09:
                    5e:25:22:a9:db:04:d1:3c:e5:15:ae:ec:aa:41:dc:
                    df:2a:81:7a:f2:f7:bf:78:2c:0d:c0:cd:ee:de:fb:
                    74:7d:4b:04:4b:9a:7f:d8:70:7b:13:09:20:17:7b:
                    72:67:30:f3:ed:4f:79:ef:4a:a7:cf:41:cf:f1:ea:
                    e9:be:27:a3:c0:4f:5b:76:80:77:a8:df:2e:b3:b2:
                    ae:10:a6:aa:b0:2e:d1:54:88:3d:3e:92:5b:92:14:
                    6e:33:a8:bf:0b:c5:73:fd:c8:81:8a:1a:fb:59:25:
                    74:4a:3a:ab:66:88:3f:17:f3:c9:9c:8b:ae:ac:16:
                    ce:b8:61:7b:2a:12:0b:e2:9c:c3:0d:f0:0d:28:4e:
                    2a:48:d1:a1:ea:17:98:6b:20:4c:87:68:b9:45:c1:
                    e3:f1:89:18:c1:98:95:22:17:53:6a:5b:cb:c6:aa:
                    23:18:80:67:10:10:a6:c1:62:7d:ee:5d:25:8d:c1:
                    b0:5c:25:0f:16:8f:fe:83:70:df:88:e0:92:43:eb:
                    bf:62:75:d5:b8:14:46:8e:66:51:ff:c8:ed:26:a4:
                    4f:4b:1e:2c:5f:43:73:8f:d9:ed:da:f3:92:2d:a7:
                    f8:43:cf:8a:a3:ab:c6:a4:75:0e:ea:e8:d3:4e:43:
                    b9:0f
                Exponent: 65537 (0x10001)
        X509v3 extensions:
            X509v3 Key Usage: critical
                Certificate Sign, CRL Sign
            X509v3 Basic Constraints: critical
                CA:TRUE
            X509v3 Subject Key Identifier: 
                F9:CA:50:36:ED:31:72:E9:3C:F4:7C:19:B5:3D:37:C2:DD:C5:4A:67
    Signature Algorithm: sha256WithRSAEncryption
         a9:d0:d1:d5:b4:b5:b9:41:cc:d3:5c:63:3f:35:f9:2b:05:8f:
         3c:f0:e1:df:f4:40:d9:0a:68:d8:96:f9:3f:42:f8:5b:63:40:
         89:6f:b8:ce:07:4e:dc:79:25:f2:0b:c8:54:ff:3c:79:46:67:
         a3:82:a2:c0:d1:05:6b:4a:51:c3:f9:1b:10:f0:b6:6d:f8:0e:
         5e:35:11:da:d9:1d:d2:aa:aa:e0:4e:94:3c:de:ae:1a:74:fd:
         80:96:1e:d1:91:b9:82:e3:09:e0:85:74:53:cd:21:24:30:1c:
         4b:aa:99:21:1a:8e:a5:05:d5:93:bd:22:24:66:08:2e:8a:47:
         27:56:95:d7:f8:4c:2d:c5:2c:12:ee:c7:82:c0:01:d4:ed:18:
         5a:54:ef:90:e6:43:77:ab:c4:2d:80:be:0d:db:da:9d:d8:03:
         d0:50:68:2c:f9:bf:1c:46:a6:8f:4c:6d:26:5b:21:a7:7f:b9:
         61:82:c4:05:c0:e8:3e:f1:36:3a:f7:e2:6b:e0:2a:7c:37:45:
         c6:33:c9:39:34:15:29:74:3c:7a:85:78:be:68:e5:d2:84:b0:
         5b:b2:c0:d4:11:39:a9:d7:75:c2:fa:6e:36:78:ea:0a:91:3e:
         e3:3f:5b:71:1b:e4:73:aa:97:66:57:b4:ed:fc:b2:bb:76:6f:
         b3:09:c6:ea
-----BEGIN CERTIFICATE-----
MIID5DCCAsygAwIBAgIQD1C4MqMcgItNfzL3hHzwbDANBgkqhkiG9w0BAQsFADCB
izELMAkGA1UEBhMCVVMxGTAXBgNVBAoTEFN1cmVzY3JpcHRzIExMQy4xLjAsBgNV
BAsTJVN1cmVzY3JpcHRzIENlcnRpZmljYXRpb24gQXV0aG9yaXRpZXMxMTAvBgNV
BAMTKFN1cmVzY3JpcHRzIFJvb3QgQ2VydGlmaWNhdGlvbiBBdXRob3JpdHkwHhcN
MTMwNTAzMTc1NTIyWhcNMzMwNTAzMTgwNTE3WjCBizELMAkGA1UEBhMCVVMxGTAX
BgNVBAoTEFN1cmVzY3JpcHRzIExMQy4xLjAsBgNVBAsTJVN1cmVzY3JpcHRzIENl
cnRpZmljYXRpb24gQXV0aG9yaXRpZXMxMTAvBgNVBAMTKFN1cmVzY3JpcHRzIFJv
b3QgQ2VydGlmaWNhdGlvbiBBdXRob3JpdHkwggEiMA0GCSqGSIb3DQEBAQUAA4IB
DwAwggEKAoIBAQDB9D2XgOh1UHHtdAxrCV4lIqnbBNE85RWu7KpB3N8qgXry9794
LA3Aze7e+3R9SwRLmn/YcHsTCSAXe3JnMPPtT3nvSqfPQc/x6um+J6PAT1t2gHeo
3y6zsq4QpqqwLtFUiD0+kluSFG4zqL8LxXP9yIGKGvtZJXRKOqtmiD8X88mci66s
Fs64YXsqEgvinMMN8A0oTipI0aHqF5hrIEyHaLlFwePxiRjBmJUiF1NqW8vGqiMY
gGcQEKbBYn3uXSWNwbBcJQ8Wj/6DcN+I4JJD679iddW4FEaOZlH/yO0mpE9LHixf
Q3OP2e3a85Itp/hDz4qjq8akdQ7q6NNOQ7kPAgMBAAGjQjBAMA4GA1UdDwEB/wQE
AwIBBjAPBgNVHRMBAf8EBTADAQH/MB0GA1UdDgQWBBT5ylA27TFy6Tz0fBm1PTfC
3cVKZzANBgkqhkiG9w0BAQsFAAOCAQEAqdDR1bS1uUHM01xjPzX5KwWPPPDh3/RA
2Qpo2Jb5P0L4W2NAiW+4zgdO3Hkl8gvIVP88eUZno4KiwNEFa0pRw/kbEPC2bfgO
XjUR2tkd0qqq4E6UPN6uGnT9gJYe0ZG5guMJ4IV0U80hJDAcS6qZIRqOpQXVk70i
JGYILopHJ1aV1/hMLcUsEu7HgsAB1O0YWlTvkOZDd6vELYC+DdvandgD0FBoLPm/
HEamj0xtJlshp3+5YYLEBcDoPvE2Ovfia+AqfDdFxjPJOTQVKXQ8eoV4vmjl0oSw
W7LA1BE5qdd1wvpuNnjqCpE+4z9bcRvkc6qXZle07fyyu3ZvswnG6g==
-----END CERTIFICATE-----

Certificate:
    Data:
        Version: 3 (0x2)
        Serial Number:
            11:00:00:00:06:67:94:2f:34:0f:eb:ee:a3:00:00:00:00:00:06
    Signature Algorithm: sha256WithRSAEncryption
        Issuer: C=US, O=Surescripts LLC., OU=Surescripts Certification Authorities, CN=Surescripts Root Certification Authority
        Validity
            Not Before: May 20 20:57:50 2013 GMT
            Not After : May 20 21:07:50 2023 GMT
        Subject: C=US, O=Surescripts LLC., OU=Surescripts Certification Authorities, CN=Surescripts Issuing Certification Authority
        Subject Public Key Info:
            Public Key Algorithm: rsaEncryption
                Public-Key: (2048 bit)
                Modulus:
                    00:9f:2c:a0:07:a2:fd:22:bc:79:37:2a:65:61:6d:
                    d7:bc:b9:ee:61:97:2a:3b:ff:65:b7:c7:95:42:c3:
                    8d:d3:df:6a:58:6e:6f:fa:13:a7:9c:83:20:ff:a9:
                    de:9d:79:95:46:66:ec:c2:69:1a:9f:24:dc:52:c9:
                    db:8b:f3:ae:9a:f3:ae:97:64:bc:91:80:c9:4e:bc:
                    65:7a:c2:69:03:69:db:b7:d5:93:da:f9:76:5d:cd:
                    3b:42:cb:df:2d:b2:ef:58:8e:03:3d:b6:75:ae:db:
                    08:13:4a:60:2e:10:be:c1:51:c5:23:4f:ae:d9:3f:
                    26:db:1c:3a:59:78:cc:fe:34:e8:3b:82:e8:49:3e:
                    64:e0:54:a2:16:46:73:2b:68:47:fd:58:fe:63:fc:
                    4d:57:4e:df:07:d7:e1:7e:82:a4:65:38:e9:bb:c4:
                    f8:12:5e:45:ac:c2:35:80:4c:7e:ac:eb:ee:2e:17:
                    c6:cb:55:14:92:3a:8c:b7:15:3a:ff:26:de:ea:b5:
                    62:2f:1b:de:91:e8:9a:19:28:e4:26:f1:ea:e0:0b:
                    2e:1a:71:b6:b3:25:bb:6b:40:e3:b9:6e:60:9d:c3:
                    e1:42:dd:75:3c:dc:d5:04:80:35:de:b3:9a:fb:24:
                    d1:42:3b:2a:18:be:71:b4:07:1a:2d:80:ae:79:bb:
                    54:11
                Exponent: 65537 (0x10001)
        X509v3 extensions:
            X509v3 Key Usage: critical
                Certificate Sign, CRL Sign
            X509v3 Subject Key Identifier: 
                54:92:9E:17:18:6A:C4:DF:01:7B:7F:4B:F3:4E:79:7F:07:D4:F3:4E
            X509v3 Certificate Policies: 
                Policy: X509v3 Any Policy
                Policy: 1.3.6.1.4.1.37583.509.50.1
                  CPS: http://pki.surescripts.net/repository/

            X509v3 Basic Constraints: critical
                CA:TRUE, pathlen:0
            X509v3 Authority Key Identifier: 
                keyid:F9:CA:50:36:ED:31:72:E9:3C:F4:7C:19:B5:3D:37:C2:DD:C5:4A:67

            X509v3 CRL Distribution Points: 

                Full Name:
                  URI:http://pki.surescripts.net/repository/SurescriptsRootCA.crl

            Authority Information Access: 
                CA Issuers - URI:http://pki.surescripts.net/repository/SurescriptsRootCA.crt
                OCSP - URI:http://pki.surescripts.net/ocsp

    Signature Algorithm: sha256WithRSAEncryption
         3f:cd:68:95:22:b1:23:a4:95:ec:bc:f4:b0:ab:01:9e:d4:43:
         f6:24:83:a0:36:24:31:73:2c:2f:28:03:3b:2e:dd:09:53:80:
         4a:c7:52:e2:70:b8:57:9b:4f:fc:e4:2e:e0:c3:69:44:89:20:
         2e:9e:d8:72:ea:b9:70:44:29:0c:a8:c0:7a:c5:0f:a8:04:e4:
         5a:16:a7:27:27:3d:b4:5a:aa:98:bb:65:ea:51:98:d5:d7:32:
         a8:58:b7:25:87:76:8c:00:8e:36:6f:a0:79:00:94:64:46:21:
         86:e4:e9:e7:18:8a:f5:aa:71:c2:98:f0:bd:3f:ae:cd:d3:b8:
         97:b8:65:13:9c:16:31:ca:5e:12:e0:16:91:d8:5a:1d:12:6c:
         58:52:01:84:37:48:4c:aa:e7:ae:06:d4:d4:e8:15:bd:f4:03:
         07:7f:28:28:d2:66:5d:2c:1d:37:ea:f2:fc:51:70:cf:05:2c:
         a2:ee:b6:0d:f7:c5:6c:0e:6b:5d:26:fb:aa:c0:3d:56:02:10:
         1f:10:30:3b:f3:81:df:e7:fa:89:dd:b7:18:ad:d3:11:b3:af:
         83:27:b1:e1:f0:99:bf:f7:65:99:bd:1a:7b:d6:8b:52:d0:da:
         87:83:7c:7c:13:46:99:3b:28:ff:77:99:f5:95:2f:df:0a:43:
         74:9a:e1:6d
-----BEGIN CERTIFICATE-----
MIIFQDCCBCigAwIBAgITEQAAAAZnlC80D+vuowAAAAAABjANBgkqhkiG9w0BAQsF
ADCBizELMAkGA1UEBhMCVVMxGTAXBgNVBAoTEFN1cmVzY3JpcHRzIExMQy4xLjAs
BgNVBAsTJVN1cmVzY3JpcHRzIENlcnRpZmljYXRpb24gQXV0aG9yaXRpZXMxMTAv
BgNVBAMTKFN1cmVzY3JpcHRzIFJvb3QgQ2VydGlmaWNhdGlvbiBBdXRob3JpdHkw
HhcNMTMwNTIwMjA1NzUwWhcNMjMwNTIwMjEwNzUwWjCBjjELMAkGA1UEBhMCVVMx
GTAXBgNVBAoTEFN1cmVzY3JpcHRzIExMQy4xLjAsBgNVBAsTJVN1cmVzY3JpcHRz
IENlcnRpZmljYXRpb24gQXV0aG9yaXRpZXMxNDAyBgNVBAMTK1N1cmVzY3JpcHRz
IElzc3VpbmcgQ2VydGlmaWNhdGlvbiBBdXRob3JpdHkwggEiMA0GCSqGSIb3DQEB
AQUAA4IBDwAwggEKAoIBAQCfLKAHov0ivHk3KmVhbde8ue5hlyo7/2W3x5VCw43T
32pYbm/6E6ecgyD/qd6deZVGZuzCaRqfJNxSyduL866a866XZLyRgMlOvGV6wmkD
adu31ZPa+XZdzTtCy98tsu9YjgM9tnWu2wgTSmAuEL7BUcUjT67ZPybbHDpZeMz+
NOg7guhJPmTgVKIWRnMraEf9WP5j/E1XTt8H1+F+gqRlOOm7xPgSXkWswjWATH6s
6+4uF8bLVRSSOoy3FTr/Jt7qtWIvG96R6JoZKOQm8ergCy4acbazJbtrQOO5bmCd
w+FC3XU83NUEgDXes5r7JNFCOyoYvnG0BxotgK55u1QRAgMBAAGjggGWMIIBkjAO
BgNVHQ8BAf8EBAMCAQYwHQYDVR0OBBYEFFSSnhcYasTfAXt/S/NOeX8H1PNOMFcG
A1UdIARQME4wBgYEVR0gADBEBgwrBgEEAYKlT4N9MgEwNDAyBggrBgEFBQcCARYm
aHR0cDovL3BraS5zdXJlc2NyaXB0cy5uZXQvcmVwb3NpdG9yeS8wEgYDVR0TAQH/
BAgwBgEB/wIBADAfBgNVHSMEGDAWgBT5ylA27TFy6Tz0fBm1PTfC3cVKZzBMBgNV
HR8ERTBDMEGgP6A9hjtodHRwOi8vcGtpLnN1cmVzY3JpcHRzLm5ldC9yZXBvc2l0
b3J5L1N1cmVzY3JpcHRzUm9vdENBLmNybDCBhAYIKwYBBQUHAQEEeDB2MEcGCCsG
AQUFBzAChjtodHRwOi8vcGtpLnN1cmVzY3JpcHRzLm5ldC9yZXBvc2l0b3J5L1N1
cmVzY3JpcHRzUm9vdENBLmNydDArBggrBgEFBQcwAYYfaHR0cDovL3BraS5zdXJl
c2NyaXB0cy5uZXQvb2NzcDANBgkqhkiG9w0BAQsFAAOCAQEAP81olSKxI6SV7Lz0
sKsBntRD9iSDoDYkMXMsLygDOy7dCVOASsdS4nC4V5tP/OQu4MNpRIkgLp7Ycuq5
cEQpDKjAesUPqATkWhanJyc9tFqqmLtl6lGY1dcyqFi3JYd2jACONm+geQCUZEYh
huTp5xiK9apxwpjwvT+uzdO4l7hlE5wWMcpeEuAWkdhaHRJsWFIBhDdITKrnrgbU
1OgVvfQDB38oKNJmXSwdN+ry/FFwzwUsou62DffFbA5rXSb7qsA9VgIQHxAwO/OB
3+f6id23GK3TEbOvgyex4fCZv/dlmb0ae9aLUtDah4N8fBNGmTso/3eZ9ZUv3wpD
dJrhbQ==
-----END CERTIFICATE-----

Certificate:
    Data:
        Version: 3 (0x2)
        Serial Number:
            50:00:00:10:b0:55:a2:1b:c4:87:a3:4e:13:00:00:00:00:10:b0
    Signature Algorithm: sha256WithRSAEncryption
        Issuer: C=US, O=Surescripts LLC., OU=Surescripts Certification Authorities, CN=Surescripts Issuing Certification Authority
        Validity
            Not Before: Mar  3 22:45:03 2020 GMT
            Not After : Mar  3 22:45:03 2022 GMT
        Subject: C=US, ST=Texas, L=Allen, O=Suiterx, OU=IT, CN=ss2020staging.srxescripts.com
        Subject Public Key Info:
            Public Key Algorithm: rsaEncryption
                Public-Key: (2048 bit)
                Modulus:
                    00:b9:86:0b:34:ba:2d:83:e4:c0:d5:20:34:15:10:
                    00:0b:a8:25:fe:c2:0f:61:a0:3e:47:a3:04:26:ca:
                    d5:cb:3f:1c:69:aa:5f:a3:71:92:82:d8:08:2b:ac:
                    63:86:e7:cd:2f:b0:70:3d:1a:e7:44:1c:f3:12:11:
                    fb:68:b6:e9:84:c9:2f:52:84:cd:61:b5:ac:76:0b:
                    5e:23:72:0b:22:47:5e:c6:0f:d5:98:22:e9:8c:06:
                    d5:ff:d6:19:1c:95:b6:02:b1:d4:fd:b7:1c:fe:b2:
                    04:6c:98:66:10:60:69:e2:be:1d:78:67:9a:e6:28:
                    f6:69:98:d6:c1:1d:cf:eb:93:1a:5c:dc:86:be:16:
                    e9:ce:51:dd:78:fa:62:83:c8:28:df:9c:7f:79:e6:
                    fb:81:ee:5c:48:4c:23:bb:5d:5d:d9:21:69:87:16:
                    fb:01:a6:b3:ea:56:b9:93:c2:c0:28:57:c4:b2:61:
                    49:43:60:68:56:c5:7e:68:08:02:61:ca:4c:3a:e5:
                    04:b9:2c:f2:62:16:fa:38:d2:c0:bd:e7:43:dd:eb:
                    79:2e:1d:92:92:d5:d5:34:79:07:f9:35:47:a6:f0:
                    2f:91:c1:83:e7:cc:7e:7c:cd:ad:4d:7b:d5:7a:60:
                    9b:de:87:79:5a:28:66:9c:5f:4b:36:1d:f0:d7:74:
                    61:cf
                Exponent: 65537 (0x10001)
        X509v3 extensions:
            X509v3 Subject Key Identifier: 
                54:84:35:EB:CF:58:00:0A:6C:7B:39:CB:65:BD:07:E7:BE:76:46:D5
            X509v3 Subject Alternative Name: 
                DNS:ss2020staging.srxescripts.com
            X509v3 Authority Key Identifier: 
                keyid:54:92:9E:17:18:6A:C4:DF:01:7B:7F:4B:F3:4E:79:7F:07:D4:F3:4E

            X509v3 CRL Distribution Points: 

                Full Name:
                  URI:http://pki.surescripts.net/repository/SurescriptsCA.crl

            Authority Information Access: 
                CA Issuers - URI:http://pki.surescripts.net/repository/SurescriptsCA.crt
                OCSP - URI:http://pki.surescripts.net/ocsp

            X509v3 Basic Constraints: critical
                CA:FALSE
            X509v3 Key Usage: critical
                Digital Signature, Key Encipherment
            1.3.6.1.4.1.311.21.7: 
                0/.'+.....7.....O...4...,...y.....}.......H..d...
            X509v3 Extended Key Usage: 
                TLS Web Client Authentication, TLS Web Server Authentication
            1.3.6.1.4.1.311.21.10: 
                0.0
..+.......0
..+.......
            X509v3 Certificate Policies: 
                Policy: 1.3.6.1.4.1.37583.509.50.1.3

    Signature Algorithm: sha256WithRSAEncryption
         8f:7e:f7:05:1e:84:b7:a1:70:9f:cd:e9:3e:13:f7:58:e1:63:
         5e:a8:b4:6a:af:02:16:64:f0:f1:07:b2:35:5f:10:1c:0c:e2:
         6e:68:ce:92:bc:e8:0a:8b:da:71:a7:f5:ea:c4:bf:00:83:07:
         55:57:50:a1:44:2a:c2:b6:fa:64:ff:a0:74:be:ae:54:60:be:
         d9:2f:be:ed:6c:4b:fc:76:3c:a3:92:0c:c3:6c:6d:76:22:e4:
         c6:83:ca:6d:7f:6e:02:b1:0b:26:12:28:b1:22:fc:10:df:53:
         bf:31:16:c8:84:cb:79:8b:e2:61:aa:c5:3c:87:2e:46:da:92:
         de:53:62:71:2b:a6:92:5c:56:6f:5d:0c:2e:14:bf:c6:36:4f:
         1a:b6:4a:94:12:77:29:7e:02:b9:7a:8e:5b:9b:95:2b:27:41:
         60:ea:81:09:0a:4a:3f:37:4d:52:07:9f:9c:8e:4e:fb:fd:f5:
         e3:9f:cd:0d:9f:66:a7:07:6a:09:e2:82:4d:01:be:95:7f:35:
         78:13:54:70:ae:e0:f6:c5:f9:67:4f:05:18:22:fe:da:cf:d4:
         95:71:0b:4d:50:8d:a2:f6:3a:ff:fa:45:a8:6c:ba:47:89:ce:
         98:b6:9b:b2:a3:ac:ea:45:6e:6c:98:af:07:11:ab:de:75:65:
         39:c0:cc:80
-----BEGIN CERTIFICATE-----
MIIFjzCCBHegAwIBAgITUAAAELBVohvEh6NOEwAAAAAQsDANBgkqhkiG9w0BAQsF
ADCBjjELMAkGA1UEBhMCVVMxGTAXBgNVBAoTEFN1cmVzY3JpcHRzIExMQy4xLjAs
BgNVBAsTJVN1cmVzY3JpcHRzIENlcnRpZmljYXRpb24gQXV0aG9yaXRpZXMxNDAy
BgNVBAMTK1N1cmVzY3JpcHRzIElzc3VpbmcgQ2VydGlmaWNhdGlvbiBBdXRob3Jp
dHkwHhcNMjAwMzAzMjI0NTAzWhcNMjIwMzAzMjI0NTAzWjB0MQswCQYDVQQGEwJV
UzEOMAwGA1UECBMFVGV4YXMxDjAMBgNVBAcTBUFsbGVuMRAwDgYDVQQKEwdTdWl0
ZXJ4MQswCQYDVQQLEwJJVDEmMCQGA1UEAxMdc3MyMDIwc3RhZ2luZy5zcnhlc2Ny
aXB0cy5jb20wggEiMA0GCSqGSIb3DQEBAQUAA4IBDwAwggEKAoIBAQC5hgs0ui2D
5MDVIDQVEAALqCX+wg9hoD5HowQmytXLPxxpql+jcZKC2AgrrGOG580vsHA9GudE
HPMSEftotumEyS9ShM1htax2C14jcgsiR17GD9WYIumMBtX/1hkclbYCsdT9txz+
sgRsmGYQYGnivh14Z5rmKPZpmNbBHc/rkxpc3Ia+FunOUd14+mKDyCjfnH955vuB
7lxITCO7XV3ZIWmHFvsBprPqVrmTwsAoV8SyYUlDYGhWxX5oCAJhykw65QS5LPJi
Fvo40sC950Pd63kuHZKS1dU0eQf5NUem8C+RwYPnzH58za1Ne9V6YJveh3laKGac
X0s2HfDXdGHPAgMBAAGjggH9MIIB+TAdBgNVHQ4EFgQUVIQ1689YAApseznLZb0H
5752RtUwKAYDVR0RBCEwH4Idc3MyMDIwc3RhZ2luZy5zcnhlc2NyaXB0cy5jb20w
HwYDVR0jBBgwFoAUVJKeFxhqxN8Be39L8055fwfU804wSAYDVR0fBEEwPzA9oDug
OYY3aHR0cDovL3BraS5zdXJlc2NyaXB0cy5uZXQvcmVwb3NpdG9yeS9TdXJlc2Ny
aXB0c0NBLmNybDCBgAYIKwYBBQUHAQEEdDByMEMGCCsGAQUFBzAChjdodHRwOi8v
cGtpLnN1cmVzY3JpcHRzLm5ldC9yZXBvc2l0b3J5L1N1cmVzY3JpcHRzQ0EuY3J0
MCsGCCsGAQUFBzABhh9odHRwOi8vcGtpLnN1cmVzY3JpcHRzLm5ldC9vY3NwMAwG
A1UdEwEB/wQCMAAwDgYDVR0PAQH/BAQDAgWgMD4GCSsGAQQBgjcVBwQxMC8GJysG
AQQBgjcVCITQ+E+D3v80h/2ZLILPsHmFp4wLgX2FyskYhtbgSAIBZAIBDjAdBgNV
HSUEFjAUBggrBgEFBQcDAgYIKwYBBQUHAwEwJwYJKwYBBAGCNxUKBBowGDAKBggr
BgEFBQcDAjAKBggrBgEFBQcDATAaBgNVHSAEEzARMA8GDSsGAQQBgqVPg30yAQMw
DQYJKoZIhvcNAQELBQADggEBAI9+9wUehLehcJ/N6T4T91jhY16otGqvAhZk8PEH
sjVfEBwM4m5ozpK86AqL2nGn9erEvwCDB1VXUKFEKsK2+mT/oHS+rlRgvtkvvu1s
S/x2PKOSDMNsbXYi5MaDym1/bgKxCyYSKLEi/BDfU78xFsiEy3mL4mGqxTyHLkba
kt5TYnErppJcVm9dDC4Uv8Y2Txq2SpQSdyl+Arl6jlublSsnQWDqgQkKSj83TVIH
n5yOTvv99eOfzQ2fZqcHagnigk0BvpV/NXgTVHCu4PbF+WdPBRgi/trP1JVxC01Q
jaL2Ov/6RahsukeJzpi2m7KjrOpFbmyYrwcRq951ZTnAzIA=
-----END CERTIFICATE-----

